target datalayout = "e-m:e-p270:32:32-p271:32:32-p272:64:64-i64:64-i128:128-f80:128-n8:16:32:64-S128"
target triple = "x86_64-pc-linux-gnu"

@.str.5 = private unnamed_addr constant [12 x i8] c"gsmtap.type\00", align 1
@proto_register_gsmtap.ett = internal global [1 x ptr] [ptr @ett_gsmtap], align 8
@.str.56 = private unnamed_addr constant [13 x i8] c"GSM Radiotap\00", align 1
@.str.57 = private unnamed_addr constant [7 x i8] c"GSMTAP\00", align 1
@.str.58 = private unnamed_addr constant [7 x i8] c"gsmtap\00", align 1
@proto_gsmtap = internal global i32 0, align 4
@.str.59 = private unnamed_addr constant [12 x i8] c"GSMTAP type\00", align 1
@gsmtap_dissector_table = internal global ptr null, align 8
@gsmtap_handle = internal global ptr null, align 8

; Function Attrs: null_pointer_is_valid sspstrong uwtable
define hidden void @proto_register_gsmtap() #0 {
  %1 = alloca ptr, align 8
  call void @llvm.lifetime.start.p0(i64 8, ptr %1) #10
  %2 = call i32 @proto_register_protocol(ptr noundef @.str.56, ptr noundef @.str.57, ptr noundef @.str.58)
  store i32 %2, ptr @proto_gsmtap, align 4
  %3 = load i32, ptr @proto_gsmtap, align 4
  call void @proto_register_field_array(i32 noundef %3, ptr noundef @proto_register_gsmtap.hf, i32 noundef 29)
  call void @proto_register_subtree_array(ptr noundef @proto_register_gsmtap.ett, i32 noundef 1)
  %4 = load i32, ptr @proto_gsmtap, align 4
  %5 = call ptr @expert_register_protocol(i32 noundef %4)
  store ptr %5, ptr %1, align 8
  %6 = load ptr, ptr %1, align 8
  call void @expert_register_field_array(ptr noundef %6, ptr noundef @proto_register_gsmtap.ei, i32 noundef 1)
  %7 = load i32, ptr @proto_gsmtap, align 4
  %8 = call ptr @register_dissector_table(ptr noundef @.str.5, ptr noundef @.str.59, i32 noundef %7, i32 noundef 4, i32 noundef 2)
  store ptr %8, ptr @gsmtap_dissector_table, align 8
  %9 = load i32, ptr @proto_gsmtap, align 4
  %10 = call ptr @register_dissector(ptr noundef @.str.58, ptr noundef @dissect_gsmtap, i32 noundef %9)
  store ptr %10, ptr @gsmtap_handle, align 8
  call void @llvm.lifetime.end.p0(i64 8, ptr %1) #10
  ret void
}